; Function Attrs: nofree norecurse nosync nounwind memory(readwrite, inaccessiblemem: none) uwtable
define hidden noundef i32 @mlib_ImageAffine_d64_3ch_nn(ptr nocapture noundef readonly %0) local_unnamed_addr #0 {
  %2 = getelementptr inbounds i8, ptr %0, i64 40
  %3 = load ptr, ptr %2, align 8
  %4 = getelementptr inbounds i8, ptr %0, i64 48
  %5 = load ptr, ptr %4, align 8
  %6 = getelementptr inbounds i8, ptr %0, i64 56
  %7 = load ptr, ptr %6, align 8
  %8 = getelementptr inbounds i8, ptr %0, i64 64
  %9 = load ptr, ptr %8, align 8
  %10 = getelementptr inbounds i8, ptr %0, i64 24
  %11 = load ptr, ptr %10, align 8
  %12 = getelementptr inbounds i8, ptr %0, i64 72
  %13 = load i32, ptr %12, align 8
  %14 = getelementptr inbounds i8, ptr %0, i64 76
  %15 = load i32, ptr %14, align 4
  %16 = getelementptr inbounds i8, ptr %0, i64 80
  %17 = load i32, ptr %16, align 8
  %18 = getelementptr inbounds i8, ptr %0, i64 84
  %19 = load i32, ptr %18, align 4
  %20 = getelementptr inbounds i8, ptr %0, i64 104
  %21 = load ptr, ptr %20, align 8
  %.not68 = icmp sgt i32 %13, %15
  br i1 %.not68, label %._crit_edge, label %.lr.ph73

.lr.ph73:                                         ; preds = %1
  %22 = getelementptr inbounds i8, ptr %0, i64 96
  %23 = load i32, ptr %22, align 8
  %24 = getelementptr inbounds i8, ptr %0, i64 32
  %25 = load ptr, ptr %24, align 8
  %26 = sext i32 %23 to i64
  %.not62 = icmp eq ptr %21, null
  %27 = sext i32 %13 to i64
  %28 = add i32 %15, 1
  br i1 %.not62, label %.lr.ph73.split.us, label %.lr.ph73.split

.lr.ph73.split.us:                                ; preds = %.lr.ph73, %.loopexit.us
  %indvars.iv76 = phi i64 [ %indvars.iv.next77, %.loopexit.us ], [ %27, %.lr.ph73 ]
  %.072.us = phi ptr [ %29, %.loopexit.us ], [ %25, %.lr.ph73 ]
  %29 = getelementptr inbounds i8, ptr %.072.us, i64 %26
  %30 = getelementptr inbounds i32, ptr %3, i64 %indvars.iv76
  %31 = load i32, ptr %30, align 4
  %32 = getelementptr inbounds i32, ptr %5, i64 %indvars.iv76
  %33 = load i32, ptr %32, align 4
  %34 = icmp sgt i32 %31, %33
  br i1 %34, label %.loopexit.us, label %35

35:                                               ; preds = %.lr.ph73.split.us
  %36 = mul nsw i32 %31, 3
  %37 = mul nsw i32 %33, 3
  %38 = sext i32 %37 to i64
  %39 = getelementptr inbounds double, ptr %29, i64 %38
  %.not6364.us = icmp sgt i32 %36, %37
  br i1 %.not6364.us, label %.loopexit.us, label %.lr.ph.us.preheader

.lr.ph.us.preheader:                              ; preds = %35
  %40 = sext i32 %36 to i64
  %41 = getelementptr inbounds double, ptr %29, i64 %40
  %42 = getelementptr inbounds i32, ptr %7, i64 %indvars.iv76
  %43 = load i32, ptr %42, align 4
  %44 = getelementptr inbounds i32, ptr %9, i64 %indvars.iv76
  %45 = load i32, ptr %44, align 4
  br label %.lr.ph.us

.lr.ph.us:                                        ; preds = %.lr.ph.us.preheader, %.lr.ph.us
  %.05267.us = phi i32 [ %62, %.lr.ph.us ], [ %43, %.lr.ph.us.preheader ]
  %.05366.us = phi ptr [ %64, %.lr.ph.us ], [ %41, %.lr.ph.us.preheader ]
  %.05465.us = phi i32 [ %63, %.lr.ph.us ], [ %45, %.lr.ph.us.preheader ]
  %46 = lshr i32 %.05465.us, 13
  %47 = and i32 %46, 262136
  %48 = zext nneg i32 %47 to i64
  %49 = getelementptr inbounds i8, ptr %11, i64 %48
  %50 = load ptr, ptr %49, align 8
  %51 = ashr i32 %.05267.us, 16
  %52 = mul nsw i32 %51, 3
  %53 = sext i32 %52 to i64
  %54 = getelementptr inbounds double, ptr %50, i64 %53
  %55 = load double, ptr %54, align 8
  store double %55, ptr %.05366.us, align 8
  %56 = getelementptr inbounds i8, ptr %54, i64 8
  %57 = load double, ptr %56, align 8
  %58 = getelementptr inbounds i8, ptr %.05366.us, i64 8
  store double %57, ptr %58, align 8
  %59 = getelementptr inbounds i8, ptr %54, i64 16
  %60 = load double, ptr %59, align 8
  %61 = getelementptr inbounds i8, ptr %.05366.us, i64 16
  store double %60, ptr %61, align 8
  %62 = add nsw i32 %.05267.us, %17
  %63 = add nsw i32 %.05465.us, %19
  %64 = getelementptr inbounds i8, ptr %.05366.us, i64 24
  %.not63.us = icmp ugt ptr %64, %39
  br i1 %.not63.us, label %.loopexit.us, label %.lr.ph.us, !llvm.loop !19

.loopexit.us:                                     ; preds = %.lr.ph.us, %35, %.lr.ph73.split.us
  %indvars.iv.next77 = add nsw i64 %indvars.iv76, 1
  %lftr.wideiv79 = trunc i64 %indvars.iv.next77 to i32
  %exitcond80.not = icmp eq i32 %28, %lftr.wideiv79
  br i1 %exitcond80.not, label %._crit_edge, label %.lr.ph73.split.us, !llvm.loop !20

.lr.ph73.split:                                   ; preds = %.lr.ph73, %.loopexit
  %indvars.iv = phi i64 [ %indvars.iv.next, %.loopexit ], [ %27, %.lr.ph73 ]
  %.072 = phi ptr [ %65, %.loopexit ], [ %25, %.lr.ph73 ]
  %65 = getelementptr inbounds i8, ptr %.072, i64 %26
  %66 = getelementptr inbounds i32, ptr %3, i64 %indvars.iv
  %67 = load i32, ptr %66, align 4
  %68 = getelementptr inbounds i32, ptr %5, i64 %indvars.iv
  %69 = load i32, ptr %68, align 4
  %70 = shl nsw i64 %indvars.iv, 1
  %71 = getelementptr inbounds i32, ptr %21, i64 %70
  %72 = load i32, ptr %71, align 4
  %73 = or disjoint i64 %70, 1
  %74 = getelementptr inbounds i32, ptr %21, i64 %73
  %75 = load i32, ptr %74, align 4
  %76 = icmp sgt i32 %67, %69
  br i1 %76, label %.loopexit, label %77

77:                                               ; preds = %.lr.ph73.split
  %78 = mul nsw i32 %67, 3
  %79 = mul nsw i32 %69, 3
  %80 = sext i32 %79 to i64
  %81 = getelementptr inbounds double, ptr %65, i64 %80
  %.not6364 = icmp sgt i32 %78, %79
  br i1 %.not6364, label %.loopexit, label %.lr.ph.preheader

.lr.ph.preheader:                                 ; preds = %77
  %82 = sext i32 %78 to i64
  %83 = getelementptr inbounds double, ptr %65, i64 %82
  %84 = getelementptr inbounds i32, ptr %7, i64 %indvars.iv
  %85 = load i32, ptr %84, align 4
  %86 = getelementptr inbounds i32, ptr %9, i64 %indvars.iv
  %87 = load i32, ptr %86, align 4
  br label %.lr.ph

.lr.ph:                                           ; preds = %.lr.ph.preheader, %.lr.ph
  %.05267 = phi i32 [ %104, %.lr.ph ], [ %85, %.lr.ph.preheader ]
  %.05366 = phi ptr [ %106, %.lr.ph ], [ %83, %.lr.ph.preheader ]
  %.05465 = phi i32 [ %105, %.lr.ph ], [ %87, %.lr.ph.preheader ]
  %88 = lshr i32 %.05465, 13
  %89 = and i32 %88, 262136
  %90 = zext nneg i32 %89 to i64
  %91 = getelementptr inbounds i8, ptr %11, i64 %90
  %92 = load ptr, ptr %91, align 8
  %93 = ashr i32 %.05267, 16
  %94 = mul nsw i32 %93, 3
  %95 = sext i32 %94 to i64
  %96 = getelementptr inbounds double, ptr %92, i64 %95
  %97 = load double, ptr %96, align 8
  store double %97, ptr %.05366, align 8
  %98 = getelementptr inbounds i8, ptr %96, i64 8
  %99 = load double, ptr %98, align 8
  %100 = getelementptr inbounds i8, ptr %.05366, i64 8
  store double %99, ptr %100, align 8
  %101 = getelementptr inbounds i8, ptr %96, i64 16
  %102 = load double, ptr %101, align 8
  %103 = getelementptr inbounds i8, ptr %.05366, i64 16
  store double %102, ptr %103, align 8
  %104 = add nsw i32 %.05267, %72
  %105 = add nsw i32 %.05465, %75
  %106 = getelementptr inbounds i8, ptr %.05366, i64 24
  %.not63 = icmp ugt ptr %106, %81
  br i1 %.not63, label %.loopexit, label %.lr.ph, !llvm.loop !19

.loopexit:                                        ; preds = %.lr.ph, %77, %.lr.ph73.split
  %indvars.iv.next = add nsw i64 %indvars.iv, 1
  %lftr.wideiv = trunc i64 %indvars.iv.next to i32
  %exitcond.not = icmp eq i32 %28, %lftr.wideiv
  br i1 %exitcond.not, label %._crit_edge, label %.lr.ph73.split, !llvm.loop !20

._crit_edge:                                      ; preds = %.loopexit, %.loopexit.us, %1
  ret i32 0
}